target datalayout = "e-m:e-p270:32:32-p271:32:32-p272:64:64-i64:64-i128:128-f80:128-n8:16:32:64-S128"
target triple = "x86_64-pc-linux-gnu"

%struct.expert_field = type { i32, i32 }

@hf_nan_bss_id = internal global i32 0, align 4
@hf_nan_availability_intervals_bitmap = internal global i32 0, align 4
@hf_nan_mac_address = internal global i32 0, align 4
@hf_nan_map_ctrl_field = internal global i32 0, align 4
@hf_nan_attr_wlan_infra_device_role = internal global i32 0, align 4
@ett_map_control = internal global i32 0, align 4
@ei_nan_elem_len_invalid = internal global %struct.expert_field zeroinitializer, align 4
@map_control_fields = internal constant [4 x ptr] [ptr @hf_nan_map_ctrl_map_id, ptr @hf_nan_map_ctrl_availability_interval_duration, ptr @hf_nan_map_ctrl_repeat, ptr null], align 16

; Function Attrs: null_pointer_is_valid sspstrong uwtable
define internal void @dissect_attr_wlan_infra(ptr noundef %0, ptr noundef %1, i32 noundef %2, i16 noundef zeroext %3, ptr noundef %4) #0 {
  %6 = alloca ptr, align 8
  %7 = alloca ptr, align 8
  %8 = alloca i32, align 4
  %9 = alloca i16, align 2
  %10 = alloca ptr, align 8
  %11 = alloca i32, align 4
  %12 = alloca i32, align 4
  store ptr %0, ptr %6, align 8
  store ptr %1, ptr %7, align 8
  store i32 %2, ptr %8, align 4
  store i16 %3, ptr %9, align 2
  store ptr %4, ptr %10, align 8
  %13 = load i16, ptr %9, align 2
  %14 = zext i16 %13 to i32
  %15 = icmp slt i32 %14, 15
  br i1 %15, label %16, label %20

16:                                               ; preds = %5
  %17 = load ptr, ptr %10, align 8
  %18 = load ptr, ptr %6, align 8
  %19 = call ptr @expert_add_info(ptr noundef %17, ptr noundef %18, ptr noundef @ei_nan_elem_len_invalid)
  br label %62

20:                                               ; preds = %5
  call void @llvm.lifetime.start.p0(i64 4, ptr %11) #5
  %21 = load i32, ptr %8, align 4
  %22 = add i32 %21, 3
  store i32 %22, ptr %11, align 4
  %23 = load ptr, ptr %6, align 8
  %24 = load i32, ptr @hf_nan_bss_id, align 4
  %25 = load ptr, ptr %7, align 8
  %26 = load i32, ptr %11, align 4
  %27 = call ptr @proto_tree_add_item(ptr noundef %23, i32 noundef %24, ptr noundef %25, i32 noundef %26, i32 noundef 6, i32 noundef -2147483648)
  %28 = load i32, ptr %11, align 4
  %29 = add i32 %28, 6
  store i32 %29, ptr %11, align 4
  %30 = load ptr, ptr %6, align 8
  %31 = load i32, ptr @hf_nan_mac_address, align 4
  %32 = load ptr, ptr %7, align 8
  %33 = load i32, ptr %11, align 4
  %34 = call ptr @proto_tree_add_item(ptr noundef %30, i32 noundef %31, ptr noundef %32, i32 noundef %33, i32 noundef 6, i32 noundef 0)
  %35 = load i32, ptr %11, align 4
  %36 = add i32 %35, 6
  store i32 %36, ptr %11, align 4
  %37 = load ptr, ptr %6, align 8
  %38 = load ptr, ptr %7, align 8
  %39 = load i32, ptr %11, align 4
  %40 = load i32, ptr @hf_nan_map_ctrl_field, align 4
  %41 = load i32, ptr @ett_map_control, align 4
  %42 = call ptr @proto_tree_add_bitmask(ptr noundef %37, ptr noundef %38, i32 noundef %39, i32 noundef %40, i32 noundef %41, ptr noundef @map_control_fields, i32 noundef -2147483648)
  %43 = load i32, ptr %11, align 4
  %44 = add i32 %43, 1
  store i32 %44, ptr %11, align 4
  call void @llvm.lifetime.start.p0(i64 4, ptr %12) #5
  %45 = load i16, ptr %9, align 2
  %46 = zext i16 %45 to i32
  %47 = sub i32 %46, 14
  store i32 %47, ptr %12, align 4
  %48 = load ptr, ptr %6, align 8
  %49 = load i32, ptr @hf_nan_availability_intervals_bitmap, align 4
  %50 = load ptr, ptr %7, align 8
  %51 = load i32, ptr %11, align 4
  %52 = load i32, ptr %12, align 4
  %53 = call ptr @proto_tree_add_item(ptr noundef %48, i32 noundef %49, ptr noundef %50, i32 noundef %51, i32 noundef %52, i32 noundef 0)
  %54 = load i32, ptr %12, align 4
  %55 = load i32, ptr %11, align 4
  %56 = add i32 %55, %54
  store i32 %56, ptr %11, align 4
  %57 = load ptr, ptr %6, align 8
  %58 = load i32, ptr @hf_nan_attr_wlan_infra_device_role, align 4
  %59 = load ptr, ptr %7, align 8
  %60 = load i32, ptr %11, align 4
  %61 = call ptr @proto_tree_add_item(ptr noundef %57, i32 noundef %58, ptr noundef %59, i32 noundef %60, i32 noundef 1, i32 noundef 0)
  call void @llvm.lifetime.end.p0(i64 4, ptr %12) #5
  call void @llvm.lifetime.end.p0(i64 4, ptr %11) #5
  br label %62

62:                                               ; preds = %20, %16
  ret void
}