; Function Attrs: null_pointer_is_valid sspstrong uwtable
define internal fastcc void @dissect_attr_wlan_infra(ptr noundef %0, ptr noundef %1, i32 noundef %2, i16 noundef zeroext %3, ptr noundef %4) unnamed_addr #0 {
  %6 = icmp ult i16 %3, 15
  br i1 %6, label %7, label %9

7:                                                ; preds = %5
  %8 = tail call ptr @expert_add_info(ptr noundef %4, ptr noundef %0, ptr noundef nonnull @ei_nan_elem_len_invalid)
  br label %28

9:                                                ; preds = %5
  %10 = zext i16 %3 to i32
  %11 = add i32 %2, 3
  %12 = load i32, ptr @hf_nan_bss_id, align 4
  %13 = tail call ptr @proto_tree_add_item(ptr noundef %0, i32 noundef %12, ptr noundef %1, i32 noundef %11, i32 noundef 6, i32 noundef -2147483648)
  %14 = add i32 %2, 9
  %15 = load i32, ptr @hf_nan_mac_address, align 4
  %16 = tail call ptr @proto_tree_add_item(ptr noundef %0, i32 noundef %15, ptr noundef %1, i32 noundef %14, i32 noundef 6, i32 noundef 0)
  %17 = add i32 %2, 15
  %18 = load i32, ptr @hf_nan_map_ctrl_field, align 4
  %19 = load i32, ptr @ett_map_control, align 4
  %20 = tail call ptr @proto_tree_add_bitmask(ptr noundef %0, ptr noundef %1, i32 noundef %17, i32 noundef %18, i32 noundef %19, ptr noundef nonnull @map_control_fields, i32 noundef -2147483648)
  %21 = add i32 %2, 16
  %22 = add nsw i32 %10, -14
  %23 = load i32, ptr @hf_nan_availability_intervals_bitmap, align 4
  %24 = tail call ptr @proto_tree_add_item(ptr noundef %0, i32 noundef %23, ptr noundef %1, i32 noundef %21, i32 noundef %22, i32 noundef 0)
  %25 = add i32 %22, %21
  %26 = load i32, ptr @hf_nan_attr_wlan_infra_device_role, align 4
  %27 = tail call ptr @proto_tree_add_item(ptr noundef %0, i32 noundef %26, ptr noundef %1, i32 noundef %25, i32 noundef 1, i32 noundef 0)
  br label %28

28:                                               ; preds = %9, %7
  ret void
}